target datalayout = "e-m:e-p270:32:32-p271:32:32-p272:64:64-i64:64-i128:128-f80:128-n8:16:32:64-S128"
target triple = "x86_64-pc-linux-gnu"

%struct.config_generic = type { ptr, i32, i32, ptr, ptr, i32, i32, i32, i32, i32, i32, i32, i32, i32, ptr, ptr, %struct.dlist_node, %struct.slist_node, %struct.slist_node, ptr, ptr, i32 }
%struct.dlist_node = type { ptr, ptr }
%struct.slist_node = type { ptr }

; Function Attrs: nounwind uwtable
define dso_local zeroext i1 @ConfigOptionIsVisible(ptr noundef %0) #0 {
  %2 = alloca i1, align 1
  %3 = alloca ptr, align 8
  store ptr %0, ptr %3, align 8
  %4 = load ptr, ptr %3, align 8
  %5 = getelementptr inbounds nuw %struct.config_generic, ptr %4, i32 0, i32 5
  %6 = load i32, ptr %5, align 8
  %7 = and i32 %6, 1024
  %8 = icmp ne i32 %7, 0
  br i1 %8, label %9, label %13

9:                                                ; preds = %1
  %10 = call i32 @GetUserId()
  %11 = call zeroext i1 @has_privs_of_role(i32 noundef %10, i32 noundef 3374)
  br i1 %11, label %13, label %12

12:                                               ; preds = %9
  store i1 false, ptr %2, align 1
  br label %14

13:                                               ; preds = %9, %1
  store i1 true, ptr %2, align 1
  br label %14

14:                                               ; preds = %13, %12
  %15 = load i1, ptr %2, align 1
  ret i1 %15
}