; Function Attrs: nounwind uwtable
define dso_local noundef zeroext i1 @ConfigOptionIsVisible(ptr noundef readonly captures(none) %0) local_unnamed_addr #0 {
  %2 = getelementptr inbounds nuw i8, ptr %0, i64 32
  %3 = load i32, ptr %2, align 8
  %4 = and i32 %3, 1024
  %.not = icmp eq i32 %4, 0
  br i1 %.not, label %8, label %5

5:                                                ; preds = %1
  %6 = tail call i32 @GetUserId() #7
  %7 = tail call zeroext i1 @has_privs_of_role(i32 noundef %6, i32 noundef 3374) #7
  br i1 %7, label %8, label %9

8:                                                ; preds = %5, %1
  br label %9

9:                                                ; preds = %5, %8
  %.0 = phi i1 [ true, %8 ], [ false, %5 ]
  ret i1 %.0
}